target datalayout = "e-m:e-p270:32:32-p271:32:32-p272:64:64-i64:64-i128:128-f80:128-n8:16:32:64-S128"
target triple = "x86_64-pc-linux-gnu"

%struct.response_class = type { ptr, i64, ptr }
%struct.evhttp_connection = type { %struct.anon, ptr, %struct.event, ptr, i16, ptr, i16, ptr, i64, i64, i32, %struct.timeval, %struct.timeval, %struct.timeval, i32, i32, %struct.timeval, i32, ptr, %struct.evcon_requestq, ptr, ptr, ptr, ptr, %struct.event_callback, ptr, ptr, i32, ptr }
%struct.anon = type { ptr, ptr }
%struct.event = type { %struct.event_callback, %union.anon.1, i32, i16, i16, ptr, %union.anon.3, %struct.timeval }
%union.anon.1 = type { %struct.anon.2 }
%struct.anon.2 = type { ptr, ptr }
%union.anon.3 = type { %struct.anon.4 }
%struct.anon.4 = type { %struct.anon.5, %struct.timeval }
%struct.anon.5 = type { ptr, ptr }
%struct.timeval = type { i64, i64 }
%struct.evcon_requestq = type { ptr, ptr }
%struct.event_callback = type { %struct.anon.0, i16, i8, i8, %union.anon, ptr }
%struct.anon.0 = type { ptr, ptr }
%union.anon = type { ptr }
%struct.evhttp_request = type { %struct.anon.8, ptr, i32, ptr, ptr, ptr, i16, ptr, i32, i32, i64, i64, ptr, ptr, i8, i8, i32, ptr, ptr, i64, i8, ptr, ptr, ptr, ptr, ptr, ptr, ptr, ptr }
%struct.anon.8 = type { ptr, ptr }
%struct.evhttp = type { %struct.anon.9, %struct.boundq, %struct.httpcbq, %struct.evconq, %struct.evwsq, i32, i32, %struct.vhostsq, %struct.aliasq, ptr, %struct.timeval, %struct.timeval, i64, i64, i32, ptr, i32, ptr, ptr, ptr, ptr, ptr, ptr, ptr, ptr, ptr, ptr }
%struct.anon.9 = type { ptr, ptr }
%struct.boundq = type { ptr, ptr }
%struct.httpcbq = type { ptr, ptr }
%struct.evconq = type { ptr, ptr }
%struct.evwsq = type { ptr, ptr }
%struct.vhostsq = type { ptr, ptr }
%struct.aliasq = type { ptr, ptr }

@.str.2 = private unnamed_addr constant [11 x i8] c"%s: strdup\00", align 1
@.str.13 = private unnamed_addr constant [76 x i8] c"<html><head><title>%d %s</title></head><body><h1>%d %s</h1>%s</body></html>\00", align 1
@.str.14 = private unnamed_addr constant [1 x i8] zeroinitializer, align 1
@__func__.evhttp_response_code_ = private unnamed_addr constant [22 x i8] c"evhttp_response_code_\00", align 1
@.str.105 = private unnamed_addr constant [21 x i8] c"Unknown Status Class\00", align 1

; Function Attrs: nounwind uwtable
define internal ptr @evhttp_response_phrase_internal(i32 noundef %0) #0 {
  %2 = alloca ptr, align 8
  %3 = alloca i32, align 4
  %4 = alloca i32, align 4
  %5 = alloca i32, align 4
  %6 = alloca i32, align 4
  store i32 %0, ptr %3, align 4
  call void @llvm.lifetime.start.p0(i64 4, ptr %4) #11
  %7 = load i32, ptr %3, align 4
  %8 = sdiv i32 %7, 100
  %9 = sub nsw i32 %8, 1
  store i32 %9, ptr %4, align 4
  call void @llvm.lifetime.start.p0(i64 4, ptr %5) #11
  %10 = load i32, ptr %3, align 4
  %11 = srem i32 %10, 100
  store i32 %11, ptr %5, align 4
  %12 = load i32, ptr %4, align 4
  %13 = icmp slt i32 %12, 0
  br i1 %13, label %17, label %14

14:                                               ; preds = %1
  %15 = load i32, ptr %4, align 4
  %16 = icmp sge i32 %15, 5
  br i1 %16, label %17, label %18

17:                                               ; preds = %14, %1
  store ptr @.str.105, ptr %2, align 8
  store i32 1, ptr %6, align 4
  br label %43

18:                                               ; preds = %14
  %19 = load i32, ptr %5, align 4
  %20 = load i32, ptr %4, align 4
  %21 = sext i32 %20 to i64
  %22 = getelementptr inbounds [5 x %struct.response_class], ptr @response_classes, i64 0, i64 %21
  %23 = getelementptr inbounds nuw %struct.response_class, ptr %22, i32 0, i32 1
  %24 = load i64, ptr %23, align 8
  %25 = trunc i64 %24 to i32
  %26 = icmp sge i32 %19, %25
  br i1 %26, label %27, label %33

27:                                               ; preds = %18
  %28 = load i32, ptr %4, align 4
  %29 = sext i32 %28 to i64
  %30 = getelementptr inbounds [5 x %struct.response_class], ptr @response_classes, i64 0, i64 %29
  %31 = getelementptr inbounds nuw %struct.response_class, ptr %30, i32 0, i32 0
  %32 = load ptr, ptr %31, align 8
  store ptr %32, ptr %2, align 8
  store i32 1, ptr %6, align 4
  br label %43

33:                                               ; preds = %18
  %34 = load i32, ptr %4, align 4
  %35 = sext i32 %34 to i64
  %36 = getelementptr inbounds [5 x %struct.response_class], ptr @response_classes, i64 0, i64 %35
  %37 = getelementptr inbounds nuw %struct.response_class, ptr %36, i32 0, i32 2
  %38 = load ptr, ptr %37, align 8
  %39 = load i32, ptr %5, align 4
  %40 = sext i32 %39 to i64
  %41 = getelementptr inbounds ptr, ptr %38, i64 %40
  %42 = load ptr, ptr %41, align 8
  store ptr %42, ptr %2, align 8
  store i32 1, ptr %6, align 4
  br label %43

43:                                               ; preds = %33, %27, %17
  call void @llvm.lifetime.end.p0(i64 4, ptr %5) #11
  call void @llvm.lifetime.end.p0(i64 4, ptr %4) #11
  %44 = load ptr, ptr %2, align 8
  ret ptr %44
}

; Function Attrs: nounwind uwtable
define hidden void @evhttp_response_code_(ptr noundef %0, i32 noundef %1, ptr noundef %2) #0 {
  %4 = alloca ptr, align 8
  %5 = alloca i32, align 4
  %6 = alloca ptr, align 8
  store ptr %0, ptr %4, align 8
  store i32 %1, ptr %5, align 4
  store ptr %2, ptr %6, align 8
  %7 = load ptr, ptr %4, align 8
  %8 = getelementptr inbounds nuw %struct.evhttp_request, ptr %7, i32 0, i32 8
  store i32 1, ptr %8, align 8
  %9 = load i32, ptr %5, align 4
  %10 = load ptr, ptr %4, align 8
  %11 = getelementptr inbounds nuw %struct.evhttp_request, ptr %10, i32 0, i32 16
  store i32 %9, ptr %11, align 4
  %12 = load ptr, ptr %4, align 8
  %13 = getelementptr inbounds nuw %struct.evhttp_request, ptr %12, i32 0, i32 17
  %14 = load ptr, ptr %13, align 8
  %15 = icmp ne ptr %14, null
  br i1 %15, label %16, label %20

16:                                               ; preds = %3
  %17 = load ptr, ptr %4, align 8
  %18 = getelementptr inbounds nuw %struct.evhttp_request, ptr %17, i32 0, i32 17
  %19 = load ptr, ptr %18, align 8
  call void @event_mm_free_(ptr noundef %19)
  br label %20

20:                                               ; preds = %16, %3
  %21 = load ptr, ptr %6, align 8
  %22 = icmp eq ptr %21, null
  br i1 %22, label %23, label %26

23:                                               ; preds = %20
  %24 = load i32, ptr %5, align 4
  %25 = call ptr @evhttp_response_phrase_internal(i32 noundef %24)
  store ptr %25, ptr %6, align 8
  br label %26

26:                                               ; preds = %23, %20
  %27 = load ptr, ptr %6, align 8
  %28 = call ptr @event_mm_strdup_(ptr noundef %27)
  %29 = load ptr, ptr %4, align 8
  %30 = getelementptr inbounds nuw %struct.evhttp_request, ptr %29, i32 0, i32 17
  store ptr %28, ptr %30, align 8
  %31 = load ptr, ptr %4, align 8
  %32 = getelementptr inbounds nuw %struct.evhttp_request, ptr %31, i32 0, i32 17
  %33 = load ptr, ptr %32, align 8
  %34 = icmp eq ptr %33, null
  br i1 %34, label %35, label %36

35:                                               ; preds = %26
  call void (ptr, ...) @event_warn(ptr noundef @.str.2, ptr noundef @__func__.evhttp_response_code_)
  br label %36

36:                                               ; preds = %35, %26
  ret void
}

; Function Attrs: nounwind uwtable
define void @evhttp_send_error(ptr noundef %0, i32 noundef %1, ptr noundef %2) #0 {
  %4 = alloca ptr, align 8
  %5 = alloca i32, align 4
  %6 = alloca ptr, align 8
  %7 = alloca ptr, align 8
  %8 = alloca ptr, align 8
  %9 = alloca i32, align 4
  %10 = alloca ptr, align 8
  store ptr %0, ptr %4, align 8
  store i32 %1, ptr %5, align 4
  store ptr %2, ptr %6, align 8
  call void @llvm.lifetime.start.p0(i64 8, ptr %7) #11
  %11 = call ptr @evbuffer_new()
  store ptr %11, ptr %7, align 8
  call void @llvm.lifetime.start.p0(i64 8, ptr %8) #11
  %12 = load ptr, ptr %4, align 8
  %13 = getelementptr inbounds nuw %struct.evhttp_request, ptr %12, i32 0, i32 1
  %14 = load ptr, ptr %13, align 8
  %15 = getelementptr inbounds nuw %struct.evhttp_connection, ptr %14, i32 0, i32 18
  %16 = load ptr, ptr %15, align 8
  store ptr %16, ptr %8, align 8
  %17 = load ptr, ptr %7, align 8
  %18 = icmp eq ptr %17, null
  br i1 %18, label %19, label %23

19:                                               ; preds = %3
  %20 = load ptr, ptr %4, align 8
  %21 = getelementptr inbounds nuw %struct.evhttp_request, ptr %20, i32 0, i32 1
  %22 = load ptr, ptr %21, align 8
  call void @evhttp_connection_free(ptr noundef %22)
  store i32 1, ptr %9, align 4
  br label %68

23:                                               ; preds = %3
  %24 = load ptr, ptr %4, align 8
  %25 = load i32, ptr %5, align 4
  %26 = load ptr, ptr %6, align 8
  call void @evhttp_response_code_(ptr noundef %24, i32 noundef %25, ptr noundef %26)
  %27 = load ptr, ptr %8, align 8
  %28 = getelementptr inbounds nuw %struct.evhttp, ptr %27, i32 0, i32 23
  %29 = load ptr, ptr %28, align 8
  %30 = icmp eq ptr %29, null
  br i1 %30, label %44, label %31

31:                                               ; preds = %23
  %32 = load ptr, ptr %8, align 8
  %33 = getelementptr inbounds nuw %struct.evhttp, ptr %32, i32 0, i32 23
  %34 = load ptr, ptr %33, align 8
  %35 = load ptr, ptr %4, align 8
  %36 = load ptr, ptr %7, align 8
  %37 = load i32, ptr %5, align 4
  %38 = load ptr, ptr %6, align 8
  %39 = load ptr, ptr %8, align 8
  %40 = getelementptr inbounds nuw %struct.evhttp, ptr %39, i32 0, i32 24
  %41 = load ptr, ptr %40, align 8
  %42 = call i32 %34(ptr noundef %35, ptr noundef %36, i32 noundef %37, ptr noundef %38, ptr noundef %41)
  %43 = icmp slt i32 %42, 0
  br i1 %43, label %44, label %64

44:                                               ; preds = %31, %23
  call void @llvm.lifetime.start.p0(i64 8, ptr %10) #11
  %45 = load i32, ptr %5, align 4
  %46 = call ptr @evhttp_response_phrase_internal(i32 noundef %45)
  store ptr %46, ptr %10, align 8
  %47 = load ptr, ptr %7, align 8
  %48 = load ptr, ptr %7, align 8
  %49 = call i64 @evbuffer_get_length(ptr noundef %48)
  %50 = call i32 @evbuffer_drain(ptr noundef %47, i64 noundef %49)
  %51 = load ptr, ptr %7, align 8
  %52 = load i32, ptr %5, align 4
  %53 = load ptr, ptr %10, align 8
  %54 = load i32, ptr %5, align 4
  %55 = load ptr, ptr %10, align 8
  %56 = load ptr, ptr %6, align 8
  %57 = icmp ne ptr %56, null
  br i1 %57, label %58, label %60

58:                                               ; preds = %44
  %59 = load ptr, ptr %6, align 8
  br label %61

60:                                               ; preds = %44
  br label %61

61:                                               ; preds = %60, %58
  %62 = phi ptr [ %59, %58 ], [ @.str.14, %60 ]
  %63 = call i32 (ptr, ptr, ...) @evbuffer_add_printf(ptr noundef %51, ptr noundef @.str.13, i32 noundef %52, ptr noundef %53, i32 noundef %54, ptr noundef %55, ptr noundef %62)
  call void @llvm.lifetime.end.p0(i64 8, ptr %10) #11
  br label %64

64:                                               ; preds = %61, %31
  %65 = load ptr, ptr %4, align 8
  %66 = load ptr, ptr %7, align 8
  call void @evhttp_send_page_(ptr noundef %65, ptr noundef %66)
  %67 = load ptr, ptr %7, align 8
  call void @evbuffer_free(ptr noundef %67)
  store i32 0, ptr %9, align 4
  br label %68

68:                                               ; preds = %64, %19
  call void @llvm.lifetime.end.p0(i64 8, ptr %8) #11
  call void @llvm.lifetime.end.p0(i64 8, ptr %7) #11
  %69 = load i32, ptr %9, align 4
  switch i32 %69, label %71 [
    i32 0, label %70
    i32 1, label %70
  ]

70:                                               ; preds = %68, %68
  ret void

71:                                               ; preds = %68
  unreachable
}