; Function Attrs: nounwind uwtable
define void @evhttp_send_error(ptr noundef %0, i32 noundef %1, ptr noundef %2) local_unnamed_addr #0 {
  %4 = tail call ptr @evbuffer_new() #18
  %5 = getelementptr inbounds nuw i8, ptr %0, i64 16
  %6 = load ptr, ptr %5, align 8
  %7 = getelementptr inbounds nuw i8, ptr %6, i64 288
  %8 = load ptr, ptr %7, align 8
  %9 = icmp eq ptr %4, null
  br i1 %9, label %10, label %11

10:                                               ; preds = %3
  tail call void @evhttp_connection_free(ptr noundef nonnull %6)
  br label %73

11:                                               ; preds = %3
  %12 = getelementptr inbounds nuw i8, ptr %0, i64 72
  store i32 1, ptr %12, align 8
  %13 = getelementptr inbounds nuw i8, ptr %0, i64 116
  store i32 %1, ptr %13, align 4
  %14 = getelementptr inbounds nuw i8, ptr %0, i64 120
  %15 = load ptr, ptr %14, align 8
  %.not.i = icmp eq ptr %15, null
  br i1 %.not.i, label %17, label %16

16:                                               ; preds = %11
  tail call void @event_mm_free_(ptr noundef nonnull %15) #18
  br label %17

17:                                               ; preds = %16, %11
  %18 = icmp eq ptr %2, null
  br i1 %18, label %19, label %evhttp_response_phrase_internal.exit.i

19:                                               ; preds = %17
  %20 = srem i32 %1, 100
  %21 = add i32 %1, -600
  %or.cond.i.i = icmp ult i32 %21, -500
  br i1 %or.cond.i.i, label %evhttp_response_phrase_internal.exit.i, label %22

22:                                               ; preds = %19
  %.lhs.trunc.i.i = trunc nuw i32 %1 to i16
  %23 = udiv i16 %.lhs.trunc.i.i, 100
  %.zext.i.i = zext nneg i16 %23 to i64
  %24 = add nuw nsw i64 %.zext.i.i, 4294967295
  %25 = and i64 %24, 4294967295
  %26 = getelementptr inbounds nuw [5 x %struct.response_class], ptr @response_classes, i64 0, i64 %25
  %27 = getelementptr inbounds nuw i8, ptr %26, i64 8
  %28 = load i64, ptr %27, align 8
  %29 = trunc i64 %28 to i32
  %.not.i.i = icmp slt i32 %20, %29
  br i1 %.not.i.i, label %32, label %30

30:                                               ; preds = %22
  %31 = load ptr, ptr %26, align 8
  br label %evhttp_response_phrase_internal.exit.i

32:                                               ; preds = %22
  %33 = getelementptr inbounds nuw i8, ptr %26, i64 16
  %34 = load ptr, ptr %33, align 8
  %35 = zext nneg i32 %20 to i64
  %36 = getelementptr inbounds nuw ptr, ptr %34, i64 %35
  %37 = load ptr, ptr %36, align 8
  br label %evhttp_response_phrase_internal.exit.i

evhttp_response_phrase_internal.exit.i:           ; preds = %32, %30, %19, %17
  %.0.i = phi ptr [ %2, %17 ], [ %31, %30 ], [ %37, %32 ], [ @.str.105, %19 ]
  %38 = tail call ptr @event_mm_strdup_(ptr noundef %.0.i) #18
  store ptr %38, ptr %14, align 8
  %39 = icmp eq ptr %38, null
  br i1 %39, label %40, label %evhttp_response_code_.exit

40:                                               ; preds = %evhttp_response_phrase_internal.exit.i
  tail call void (ptr, ...) @event_warn(ptr noundef nonnull @.str.2, ptr noundef nonnull @__func__.evhttp_response_code_) #18
  br label %evhttp_response_code_.exit

evhttp_response_code_.exit:                       ; preds = %evhttp_response_phrase_internal.exit.i, %40
  %41 = getelementptr inbounds nuw i8, ptr %8, i64 248
  %42 = load ptr, ptr %41, align 8
  %43 = icmp eq ptr %42, null
  br i1 %43, label %49, label %44

44:                                               ; preds = %evhttp_response_code_.exit
  %45 = getelementptr inbounds nuw i8, ptr %8, i64 256
  %46 = load ptr, ptr %45, align 8
  %47 = tail call i32 %42(ptr noundef nonnull %0, ptr noundef nonnull %4, i32 noundef %1, ptr noundef %2, ptr noundef %46) #18
  %48 = icmp slt i32 %47, 0
  br i1 %48, label %49, label %72

49:                                               ; preds = %44, %evhttp_response_code_.exit
  %50 = srem i32 %1, 100
  %51 = add i32 %1, -600
  %or.cond.i = icmp ult i32 %51, -500
  br i1 %or.cond.i, label %evhttp_response_phrase_internal.exit, label %52

52:                                               ; preds = %49
  %.lhs.trunc.i = trunc nuw i32 %1 to i16
  %53 = udiv i16 %.lhs.trunc.i, 100
  %.zext.i = zext nneg i16 %53 to i64
  %54 = add nuw nsw i64 %.zext.i, 4294967295
  %55 = and i64 %54, 4294967295
  %56 = getelementptr inbounds nuw [5 x %struct.response_class], ptr @response_classes, i64 0, i64 %55
  %57 = getelementptr inbounds nuw i8, ptr %56, i64 8
  %58 = load i64, ptr %57, align 8
  %59 = trunc i64 %58 to i32
  %.not.i26 = icmp slt i32 %50, %59
  br i1 %.not.i26, label %62, label %60

60:                                               ; preds = %52
  %61 = load ptr, ptr %56, align 8
  br label %evhttp_response_phrase_internal.exit

62:                                               ; preds = %52
  %63 = getelementptr inbounds nuw i8, ptr %56, i64 16
  %64 = load ptr, ptr %63, align 8
  %65 = zext nneg i32 %50 to i64
  %66 = getelementptr inbounds nuw ptr, ptr %64, i64 %65
  %67 = load ptr, ptr %66, align 8
  br label %evhttp_response_phrase_internal.exit

evhttp_response_phrase_internal.exit:             ; preds = %49, %60, %62
  %.0.i27 = phi ptr [ %61, %60 ], [ %67, %62 ], [ @.str.105, %49 ]
  %68 = tail call i64 @evbuffer_get_length(ptr noundef nonnull %4) #18
  %69 = tail call i32 @evbuffer_drain(ptr noundef nonnull %4, i64 noundef %68) #18
  %70 = select i1 %18, ptr @.str.14, ptr %2
  %71 = tail call i32 (ptr, ptr, ...) @evbuffer_add_printf(ptr noundef nonnull %4, ptr noundef nonnull @.str.13, i32 noundef %1, ptr noundef %.0.i27, i32 noundef %1, ptr noundef %.0.i27, ptr noundef nonnull %70) #18
  br label %72

72:                                               ; preds = %evhttp_response_phrase_internal.exit, %44
  tail call void @evhttp_send_page_(ptr noundef nonnull %0, ptr noundef nonnull %4)
  tail call void @evbuffer_free(ptr noundef nonnull %4) #18
  br label %73

73:                                               ; preds = %72, %10
  ret void
}